; Function Attrs: mustprogress uwtable
define hidden noundef zeroext i1 @_ZN4cvc58internal6theory11quantifiers11SygusUnifIo17constructSolutionERSt6vectorINS0_12NodeTemplateILb1EEESaIS6_EES9_(ptr noundef nonnull align 8 dereferenceable(632) %this, ptr noundef nonnull align 8 dereferenceable(24) %sols, ptr noundef nonnull align 8 dereferenceable(24) %lemmas) unnamed_addr #3 align 2 personality ptr @__gxx_personality_v0 {
entry:
  %sol = alloca %"class.cvc5::internal::NodeTemplate", align 8
  call void @_ZN4cvc58internal6theory11quantifiers11SygusUnifIo21constructSolutionNodeERSt6vectorINS0_12NodeTemplateILb1EEESaIS6_EE(ptr nonnull sret(%"class.cvc5::internal::NodeTemplate") align 8 %sol, ptr noundef nonnull align 8 dereferenceable(632) %this, ptr noundef nonnull align 8 dereferenceable(24) %lemmas)
  %0 = load ptr, ptr %sol, align 8
  %1 = load atomic i8, ptr @_ZGVZN4cvc58internal4expr9NodeValue4nullEvE6s_null acquire, align 8
  %guard.uninitialized.i.i = icmp eq i8 %1, 0
  br i1 %guard.uninitialized.i.i, label %init.check.i.i, label %invoke.cont, !prof !4

init.check.i.i:                                   ; preds = %entry
  %2 = call i32 @__cxa_guard_acquire(ptr nonnull @_ZGVZN4cvc58internal4expr9NodeValue4nullEvE6s_null) #22
  %tobool.not.i.i = icmp eq i32 %2, 0
  br i1 %tobool.not.i.i, label %invoke.cont, label %init.i.i

init.i.i:                                         ; preds = %init.check.i.i
  %call.i.i = invoke noalias noundef nonnull dereferenceable(16) ptr @_Znwm(i64 noundef 16) #23
          to label %invoke.cont.i.i unwind label %lpad.i.i

invoke.cont.i.i:                                  ; preds = %init.i.i
  store i64 1152920405095219200, ptr %call.i.i, align 8
  %d_kind.i.i.i = getelementptr inbounds i8, ptr %call.i.i, i64 8
  store i16 0, ptr %d_kind.i.i.i, align 8
  %d_nchildren.i.i.i = getelementptr inbounds i8, ptr %call.i.i, i64 12
  store i32 0, ptr %d_nchildren.i.i.i, align 4
  store ptr %call.i.i, ptr @_ZZN4cvc58internal4expr9NodeValue4nullEvE6s_null, align 8
  call void @__cxa_guard_release(ptr nonnull @_ZGVZN4cvc58internal4expr9NodeValue4nullEvE6s_null) #22
  br label %invoke.cont

lpad.i.i:                                         ; preds = %init.i.i
  %3 = landingpad { ptr, i32 }
          cleanup
  call void @__cxa_guard_abort(ptr nonnull @_ZGVZN4cvc58internal4expr9NodeValue4nullEvE6s_null) #22
  br label %lpad.body

invoke.cont:                                      ; preds = %invoke.cont.i.i, %init.check.i.i, %entry
  %4 = load ptr, ptr @_ZZN4cvc58internal4expr9NodeValue4nullEvE6s_null, align 8
  %cmp.i = icmp ne ptr %0, %4
  br i1 %cmp.i, label %if.then, label %cleanup

if.then:                                          ; preds = %invoke.cont
  %_M_finish.i = getelementptr inbounds i8, ptr %sols, i64 8
  %5 = load ptr, ptr %_M_finish.i, align 8
  %_M_end_of_storage.i = getelementptr inbounds i8, ptr %sols, i64 16
  %6 = load ptr, ptr %_M_end_of_storage.i, align 8
  %cmp.not.i = icmp eq ptr %5, %6
  br i1 %cmp.not.i, label %if.else.i, label %if.then.i

if.then.i:                                        ; preds = %if.then
  %7 = load ptr, ptr %sol, align 8
  store ptr %7, ptr %5, align 8
  %bf.load.i.i.i.i.i = load i64, ptr %7, align 8
  %bf.lshr.i.i.i.i.i = lshr i64 %bf.load.i.i.i.i.i, 40
  %8 = trunc i64 %bf.lshr.i.i.i.i.i to i32
  %bf.cast.i.i.i.i.i = and i32 %8, 1048575
  %cmp.i.i.i.i.i = icmp ult i32 %bf.cast.i.i.i.i.i, 1048574
  br i1 %cmp.i.i.i.i.i, label %if.then.i.i.i.i.i, label %if.else.i.i.i.i.i

if.then.i.i.i.i.i:                                ; preds = %if.then.i
  %bf.value.i.i.i.i.i = add i64 %bf.load.i.i.i.i.i, 1099511627776
  %bf.shl.i.i.i.i.i = and i64 %bf.value.i.i.i.i.i, 1152920405095219200
  %bf.clear7.i.i.i.i.i = and i64 %bf.load.i.i.i.i.i, -1152920405095219201
  %bf.set.i.i.i.i.i = or disjoint i64 %bf.shl.i.i.i.i.i, %bf.clear7.i.i.i.i.i
  store i64 %bf.set.i.i.i.i.i, ptr %7, align 8
  br label %_ZNSt16allocator_traitsISaIN4cvc58internal12NodeTemplateILb1EEEEE9constructIS3_JRKS3_EEEvRS4_PT_DpOT0_.exit.i

if.else.i.i.i.i.i:                                ; preds = %if.then.i
  %cmp12.i.i.i.i.i = icmp eq i32 %bf.cast.i.i.i.i.i, 1048574
  br i1 %cmp12.i.i.i.i.i, label %if.then13.i.i.i.i.i, label %_ZNSt16allocator_traitsISaIN4cvc58internal12NodeTemplateILb1EEEEE9constructIS3_JRKS3_EEEvRS4_PT_DpOT0_.exit.i

if.then13.i.i.i.i.i:                              ; preds = %if.else.i.i.i.i.i
  %bf.set23.i.i.i.i.i = or i64 %bf.load.i.i.i.i.i, 1152920405095219200
  store i64 %bf.set23.i.i.i.i.i, ptr %7, align 8
  invoke void @_ZN4cvc58internal4expr9NodeValue20markRefCountMaxedOutEv(ptr noundef nonnull align 8 dereferenceable(16) %7)
          to label %_ZNSt16allocator_traitsISaIN4cvc58internal12NodeTemplateILb1EEEEE9constructIS3_JRKS3_EEEvRS4_PT_DpOT0_.exit.i unwind label %lpad

_ZNSt16allocator_traitsISaIN4cvc58internal12NodeTemplateILb1EEEEE9constructIS3_JRKS3_EEEvRS4_PT_DpOT0_.exit.i: ; preds = %if.then13.i.i.i.i.i, %if.else.i.i.i.i.i, %if.then.i.i.i.i.i
  %9 = load ptr, ptr %_M_finish.i, align 8
  %incdec.ptr.i = getelementptr inbounds i8, ptr %9, i64 8
  store ptr %incdec.ptr.i, ptr %_M_finish.i, align 8
  br label %cleanup

if.else.i:                                        ; preds = %if.then
  invoke void @_ZNSt6vectorIN4cvc58internal12NodeTemplateILb1EEESaIS3_EE17_M_realloc_insertIJRKS3_EEEvN9__gnu_cxx17__normal_iteratorIPS3_S5_EEDpOT_(ptr noundef nonnull align 8 dereferenceable(24) %sols, ptr %5, ptr noundef nonnull align 8 dereferenceable(8) %sol)
          to label %cleanup unwind label %lpad

lpad:                                             ; preds = %if.else.i, %if.then13.i.i.i.i.i
  %10 = landingpad { ptr, i32 }
          cleanup
  br label %lpad.body

lpad.body:                                        ; preds = %lpad.i.i, %lpad
  %eh.lpad-body = phi { ptr, i32 } [ %10, %lpad ], [ %3, %lpad.i.i ]
  call void @_ZN4cvc58internal12NodeTemplateILb1EED2Ev(ptr noundef nonnull align 8 dereferenceable(8) %sol) #22
  resume { ptr, i32 } %eh.lpad-body

cleanup:                                          ; preds = %_ZNSt16allocator_traitsISaIN4cvc58internal12NodeTemplateILb1EEEEE9constructIS3_JRKS3_EEEvRS4_PT_DpOT0_.exit.i, %if.else.i, %invoke.cont
  %11 = load ptr, ptr %sol, align 8
  %bf.load.i.i = load i64, ptr %11, align 8
  %12 = and i64 %bf.load.i.i, 1152920405095219200
  %cmp.not.i.i = icmp eq i64 %12, 1152920405095219200
  br i1 %cmp.not.i.i, label %_ZN4cvc58internal12NodeTemplateILb1EED2Ev.exit, label %if.then.i.i

if.then.i.i:                                      ; preds = %cleanup
  %bf.value.i.i = add i64 %bf.load.i.i, 1152920405095219200
  %bf.shl.i.i = and i64 %bf.value.i.i, 1152920405095219200
  %bf.clear7.i.i = and i64 %bf.load.i.i, -1152920405095219201
  %bf.set.i.i = or disjoint i64 %bf.shl.i.i, %bf.clear7.i.i
  store i64 %bf.set.i.i, ptr %11, align 8
  %cmp12.i.i = icmp eq i64 %bf.shl.i.i, 0
  br i1 %cmp12.i.i, label %if.then13.i.i, label %_ZN4cvc58internal12NodeTemplateILb1EED2Ev.exit

if.then13.i.i:                                    ; preds = %if.then.i.i
  invoke void @_ZN4cvc58internal4expr9NodeValue15markForDeletionEv(ptr noundef nonnull align 8 dereferenceable(16) %11)
          to label %_ZN4cvc58internal12NodeTemplateILb1EED2Ev.exit unwind label %terminate.lpad.i

terminate.lpad.i:                                 ; preds = %if.then13.i.i
  %13 = landingpad { ptr, i32 }
          catch ptr null
  %14 = extractvalue { ptr, i32 } %13, 0
  call void @__clang_call_terminate(ptr %14) #24
  unreachable

_ZN4cvc58internal12NodeTemplateILb1EED2Ev.exit:   ; preds = %cleanup, %if.then.i.i, %if.then13.i.i
  ret i1 %cmp.i
}